cpandas.indexes.base
_new_Index
p0
(cpandas.indexes.base
Index
p1
(dp2
S'data'
p3
cnumpy.core.multiarray
_reconstruct
p4
(cnumpy
ndarray
p5
(I0
tp6
S'b'
p7
tp8
Rp9
(I1
(I121
tp10
cnumpy
dtype
p11
(S'O8'
p12
I0
I1
tp13
Rp14
(I3
S'|'
p15
NNNI-1
I-1
I63
tp16
bI00
(lp17
S'LD_Battery_Left_theta'
p18
aS'LD_Battery_Left_thetaAbs'
p19
aS'LD_Battery_Left_x'
p20
aS'LD_Battery_Left_y'
p21
aS'LD_Battery_Left_z'
p22
aS'LD_Battery_Up_theta'
p23
aS'LD_Battery_Up_thetaAbs'
p24
aS'LD_Battery_Up_x'
p25
aS'LD_Battery_Up_y'
p26
aS'LD_Battery_Up_z'
p27
aS'LD_Camera_LD_theta'
p28
aS'LD_Camera_LD_thetaAbs'
p29
aS'LD_Camera_LD_x'
p30
aS'LD_Camera_LD_y'
p31
aS'LD_Camera_LD_z'
p32
aS'LD_Camera_RU_theta'
p33
aS'LD_Camera_RU_thetaAbs'
p34
aS'LD_Camera_RU_x'
p35
aS'LD_Camera_RU_y'
p36
aS'LD_Camera_RU_z'
p37
aS'LD_Earphone_LD_theta'
p38
aS'LD_Earphone_LD_thetaAbs'
p39
aS'LD_Earphone_LD_x'
p40
aS'LD_Earphone_LD_y'
p41
aS'LD_Earphone_LD_z'
p42
aS'LD_Earphone_RU_theta'
p43
aS'LD_Earphone_RU_thetaAbs'
p44
aS'LD_Earphone_RU_x'
p45
aS'LD_Earphone_RU_y'
p46
aS'LD_Earphone_RU_z'
p47
aS'LD_Front_Camera_LD_theta'
p48
aS'LD_Front_Camera_LD_thetaAbs'
p49
aS'LD_Front_Camera_LD_x'
p50
aS'LD_Front_Camera_LD_y'
p51
aS'LD_Front_Camera_LD_z'
p52
aS'LD_Front_Camera_RU_theta'
p53
aS'LD_Front_Camera_RU_thetaAbs'
p54
aS'LD_Front_Camera_RU_x'
p55
aS'LD_Front_Camera_RU_y'
p56
aS'LD_Front_Camera_RU_z'
p57
aS'LD_MainBoard_Corner_theta'
p58
aS'LD_MainBoard_Corner_thetaAbs'
p59
aS'LD_MainBoard_Corner_x'
p60
aS'LD_MainBoard_Corner_y'
p61
aS'LD_MainBoard_Corner_z'
p62
aS'LD_MainBoard_LU_theta'
p63
aS'LD_MainBoard_LU_thetaAbs'
p64
aS'LD_MainBoard_LU_x'
p65
aS'LD_MainBoard_LU_y'
p66
aS'LD_MainBoard_LU_z'
p67
aS'LD_MainBoard_RU_theta'
p68
aS'LD_MainBoard_RU_thetaAbs'
p69
aS'LD_MainBoard_RU_x'
p70
aS'LD_MainBoard_RU_y'
p71
aS'LD_MainBoard_RU_z'
p72
aS'LD_NFC_Down_theta'
p73
aS'LD_NFC_Down_thetaAbs'
p74
aS'LD_NFC_Down_x'
p75
aS'LD_NFC_Down_y'
p76
aS'LD_NFC_Down_z'
p77
aS'LD_NFC_Up_theta'
p78
aS'LD_NFC_Up_thetaAbs'
p79
aS'LD_NFC_Up_x'
p80
aS'LD_NFC_Up_y'
p81
aS'LD_NFC_Up_z'
p82
aS'LU_Battery_Down_theta'
p83
aS'LU_Battery_Down_thetaAbs'
p84
aS'LU_Battery_Down_x'
p85
aS'LU_Battery_Down_y'
p86
aS'LU_Battery_Down_z'
p87
aS'LU_Battery_Right_theta'
p88
aS'LU_Battery_Right_thetaAbs'
p89
aS'LU_Battery_Right_x'
p90
aS'LU_Battery_Right_y'
p91
aS'LU_Battery_Right_z'
p92
aS'LU_Button_LD_theta'
p93
aS'LU_Button_LD_thetaAbs'
p94
aS'LU_Button_LD_x'
p95
aS'LU_Button_LD_y'
p96
aS'LU_Button_LD_z'
p97
aS'LU_Button_RU_theta'
p98
aS'LU_Button_RU_thetaAbs'
p99
aS'LU_Button_RU_x'
p100
aS'LU_Button_RU_y'
p101
aS'LU_Button_RU_z'
p102
aS'LU_MainBoard_LD_theta'
p103
aS'LU_MainBoard_LD_thetaAbs'
p104
aS'LU_MainBoard_LD_x'
p105
aS'LU_MainBoard_LD_y'
p106
aS'LU_MainBoard_LD_z'
p107
aS'LU_MainBoard_RD_theta'
p108
aS'LU_MainBoard_RD_thetaAbs'
p109
aS'LU_MainBoard_RD_x'
p110
aS'LU_MainBoard_RD_y'
p111
aS'LU_MainBoard_RD_z'
p112
aS'LU_MainBoard_Sim_theta'
p113
aS'LU_MainBoard_Sim_thetaAbs'
p114
aS'LU_MainBoard_Sim_x'
p115
aS'LU_MainBoard_Sim_y'
p116
aS'LU_MainBoard_Sim_z'
p117
aS'LU_Motor_LD_theta'
p118
aS'LU_Motor_LD_thetaAbs'
p119
aS'LU_Motor_LD_x'
p120
aS'LU_Motor_LD_y'
p121
aS'LU_Motor_LD_z'
p122
aS'LU_Motor_RU_theta'
p123
aS'LU_Motor_RU_thetaAbs'
p124
aS'LU_Motor_RU_x'
p125
aS'LU_Motor_RU_y'
p126
aS'LU_Motor_RU_z'
p127
aS'LU_Voice_LD_theta'
p128
aS'LU_Voice_LD_thetaAbs'
p129
aS'LU_Voice_LD_x'
p130
aS'LU_Voice_LD_y'
p131
aS'LU_Voice_LD_z'
p132
aS'LU_Voice_RU_theta'
p133
aS'LU_Voice_RU_thetaAbs'
p134
aS'LU_Voice_RU_x'
p135
aS'LU_Voice_RU_y'
p136
aS'LU_Voice_RU_z'
p137
aS'label'
p138
atp139
bsS'name'
p140
Nstp141
Rp142
.